; Function Attrs: mustprogress uwtable
define noundef i32 @_ZNK6icu_7528TimeZoneGenericNameMatchInfo18getGenericNameTypeEi(ptr nocapture noundef nonnull readonly align 8 dereferenceable(8) %this, i32 noundef %index) local_unnamed_addr #1 align 2 {
entry:
  %0 = load ptr, ptr %this, align 8
  %call = tail call noundef ptr @_ZNK6icu_757UVector9elementAtEi(ptr noundef nonnull align 8 dereferenceable(40) %0, i32 noundef %index)
  %cmp.not = icmp eq ptr %call, null
  br i1 %cmp.not, label %return, label %if.then

if.then:                                          ; preds = %entry
  %1 = load ptr, ptr %call, align 8
  %2 = load i32, ptr %1, align 8
  br label %return

return:                                           ; preds = %entry, %if.then
  %retval.0 = phi i32 [ %2, %if.then ], [ 0, %entry ]
  ret i32 %retval.0
}